target datalayout = "e-m:e-p270:32:32-p271:32:32-p272:64:64-i64:64-i128:128-f80:128-n8:16:32:64-S128"
target triple = "x86_64-pc-linux-gnu"

%"class.testing::TestPartResultReporterInterface" = type { ptr }
%"class.testing::ScopedFakeTestPartResultReporter" = type { %"class.testing::TestPartResultReporterInterface", i32, ptr, ptr }

; Function Attrs: mustprogress nounwind uwtable
define linkonce_odr hidden void @_ZN7testing31TestPartResultReporterInterfaceD2Ev(ptr noundef nonnull align 8 dereferenceable(8) %0) unnamed_addr #6 comdat align 2 {
  %2 = alloca ptr, align 8
  store ptr %0, ptr %2, align 8, !tbaa !123
  ret void
}

; Function Attrs: inlinehint mustprogress nounwind uwtable
define linkonce_odr hidden void @_ZN7testing31TestPartResultReporterInterfaceC2Ev(ptr noundef nonnull align 8 dereferenceable(8) %0) unnamed_addr #10 comdat align 2 {
  %2 = alloca ptr, align 8
  store ptr %0, ptr %2, align 8, !tbaa !123
  %3 = load ptr, ptr %2, align 8
  store ptr getelementptr inbounds inrange(-16, 24) ({ [5 x ptr] }, ptr @_ZTVN7testing31TestPartResultReporterInterfaceE, i32 0, i32 0, i32 2), ptr %3, align 8, !tbaa !27
  ret void
}

; Function Attrs: mustprogress uwtable
define dso_local void @_ZN7testing32ScopedFakeTestPartResultReporterC2ENS0_13InterceptModeEPNS_19TestPartResultArrayE(ptr noundef nonnull align 8 dereferenceable(32) %0, i32 noundef %1, ptr noundef %2) unnamed_addr #4 align 2 personality ptr @__gxx_personality_v0 {
  %4 = alloca ptr, align 8
  %5 = alloca i32, align 4
  %6 = alloca ptr, align 8
  %7 = alloca ptr, align 8
  %8 = alloca i32, align 4
  store ptr %0, ptr %4, align 8, !tbaa !113
  store i32 %1, ptr %5, align 4, !tbaa !125
  store ptr %2, ptr %6, align 8, !tbaa !115
  %9 = load ptr, ptr %4, align 8
  call void @_ZN7testing31TestPartResultReporterInterfaceC2Ev(ptr noundef nonnull align 8 dereferenceable(8) %9) #3
  store ptr getelementptr inbounds inrange(-16, 24) ({ [5 x ptr] }, ptr @_ZTVN7testing32ScopedFakeTestPartResultReporterE, i32 0, i32 0, i32 2), ptr %9, align 8, !tbaa !27
  %10 = getelementptr inbounds nuw %"class.testing::ScopedFakeTestPartResultReporter", ptr %9, i32 0, i32 1
  %11 = load i32, ptr %5, align 4, !tbaa !125
  store i32 %11, ptr %10, align 8, !tbaa !117
  %12 = getelementptr inbounds nuw %"class.testing::ScopedFakeTestPartResultReporter", ptr %9, i32 0, i32 3
  %13 = load ptr, ptr %6, align 8, !tbaa !115
  store ptr %13, ptr %12, align 8, !tbaa !122
  invoke void @_ZN7testing32ScopedFakeTestPartResultReporter4InitEv(ptr noundef nonnull align 8 dereferenceable(32) %9)
          to label %14 unwind label %15

14:                                               ; preds = %3
  ret void

15:                                               ; preds = %3
  %16 = landingpad { ptr, i32 }
          cleanup
  %17 = extractvalue { ptr, i32 } %16, 0
  store ptr %17, ptr %7, align 8
  %18 = extractvalue { ptr, i32 } %16, 1
  store i32 %18, ptr %8, align 4
  call void @_ZN7testing31TestPartResultReporterInterfaceD2Ev(ptr noundef nonnull align 8 dereferenceable(8) %9) #3
  br label %19

19:                                               ; preds = %15
  %20 = load ptr, ptr %7, align 8
  %21 = load i32, ptr %8, align 4
  %22 = insertvalue { ptr, i32 } poison, ptr %20, 0
  %23 = insertvalue { ptr, i32 } %22, i32 %21, 1
  resume { ptr, i32 } %23
}